target datalayout = "e-m:e-p270:32:32-p271:32:32-p272:64:64-i64:64-i128:128-f80:128-n8:16:32:64-S128"
target triple = "x86_64-pc-linux-gnu"

%struct._zend_llist = type { ptr, ptr, i64, i64, ptr, i8, ptr }
%struct._zend_extension_persist_data = type { ptr, i64, ptr }

@zend_extension_flags = dso_local global i32 0, align 4
@zend_extensions = dso_local global %struct._zend_llist zeroinitializer, align 8

; Function Attrs: nounwind uwtable
define dso_local i64 @zend_extensions_op_array_persist_calc(ptr noundef %0) #0 {
  %2 = alloca i64, align 8
  %3 = alloca ptr, align 8
  %4 = alloca %struct._zend_extension_persist_data, align 8
  store ptr %0, ptr %3, align 8, !tbaa !88
  %5 = load i32, ptr @zend_extension_flags, align 4, !tbaa !34
  %6 = and i32 %5, 8
  %7 = icmp ne i32 %6, 0
  br i1 %7, label %8, label %15

8:                                                ; preds = %1
  call void @llvm.lifetime.start.p0(i64 24, ptr %4) #11
  %9 = load ptr, ptr %3, align 8, !tbaa !88
  %10 = getelementptr inbounds nuw %struct._zend_extension_persist_data, ptr %4, i32 0, i32 0
  store ptr %9, ptr %10, align 8, !tbaa !89
  %11 = getelementptr inbounds nuw %struct._zend_extension_persist_data, ptr %4, i32 0, i32 1
  store i64 0, ptr %11, align 8, !tbaa !91
  %12 = getelementptr inbounds nuw %struct._zend_extension_persist_data, ptr %4, i32 0, i32 2
  store ptr null, ptr %12, align 8, !tbaa !92
  call void @zend_llist_apply_with_argument(ptr noundef @zend_extensions, ptr noundef @zend_extension_op_array_persist_calc_handler, ptr noundef %4)
  %13 = getelementptr inbounds nuw %struct._zend_extension_persist_data, ptr %4, i32 0, i32 1
  %14 = load i64, ptr %13, align 8, !tbaa !91
  store i64 %14, ptr %2, align 8
  call void @llvm.lifetime.end.p0(i64 24, ptr %4) #11
  br label %16

15:                                               ; preds = %1
  store i64 0, ptr %2, align 8
  br label %16

16:                                               ; preds = %15, %8
  %17 = load i64, ptr %2, align 8
  ret i64 %17
}