; Function Attrs: nounwind uwtable
define dso_local i64 @zend_extensions_op_array_persist_calc(ptr noundef %0) local_unnamed_addr #0 {
  %2 = alloca %struct._zend_extension_persist_data, align 8
  %3 = load i32, ptr @zend_extension_flags, align 4, !tbaa !25
  %4 = and i32 %3, 8
  %.not = icmp eq i32 %4, 0
  br i1 %.not, label %8, label %5

5:                                                ; preds = %1
  call void @llvm.lifetime.start.p0(i64 24, ptr nonnull %2) #14
  store ptr %0, ptr %2, align 8, !tbaa !71
  %6 = getelementptr inbounds nuw i8, ptr %2, i64 8
  call void @llvm.memset.p0.i64(ptr noundef nonnull align 8 dereferenceable(16) %6, i8 0, i64 16, i1 false)
  call void @zend_llist_apply_with_argument(ptr noundef nonnull @zend_extensions, ptr noundef nonnull @zend_extension_op_array_persist_calc_handler, ptr noundef nonnull %2) #14
  %7 = load i64, ptr %6, align 8, !tbaa !73
  call void @llvm.lifetime.end.p0(i64 24, ptr nonnull %2) #14
  br label %8

8:                                                ; preds = %1, %5
  %.0 = phi i64 [ %7, %5 ], [ 0, %1 ]
  ret i64 %.0
}